target datalayout = "e-m:e-p270:32:32-p271:32:32-p272:64:64-i64:64-i128:128-f80:128-n8:16:32:64-S128"
target triple = "x86_64-pc-linux-gnu"

%class.VM_Operation = type { ptr, ptr }
%class.ZDriverLocker = type { i8 }
%class.VM_ZVerifyOld = type { %class.VM_Operation }

@ZVerifyRoots = external global i8, align 1
@ZVerifyObjects = external global i8, align 1
@_ZTV12VM_Operation = external unnamed_addr constant { [12 x ptr] }, align 8

; Function Attrs: mustprogress nounwind uwtable
define linkonce_odr hidden void @_ZN12VM_OperationC2Ev(ptr noundef nonnull align 8 dereferenceable(16) %0) unnamed_addr #1 comdat align 2 {
  %2 = alloca ptr, align 8
  store ptr %0, ptr %2, align 8
  %3 = load ptr, ptr %2, align 8
  store ptr getelementptr inbounds inrange(-16, 80) ({ [12 x ptr] }, ptr @_ZTV12VM_Operation, i32 0, i32 0, i32 2), ptr %3, align 8
  %4 = getelementptr inbounds %class.VM_Operation, ptr %3, i32 0, i32 1
  store ptr null, ptr %4, align 8
  ret void
}

; Function Attrs: mustprogress nounwind uwtable
define linkonce_odr hidden void @_ZN13VM_ZVerifyOld5pauseEv(ptr noundef nonnull align 8 dereferenceable(16) %0) #1 comdat align 2 {
  %2 = alloca ptr, align 8
  store ptr %0, ptr %2, align 8
  %3 = load ptr, ptr %2, align 8
  call void @_ZN8VMThread7executeEP12VM_Operation(ptr noundef %3)
  ret void
}

; Function Attrs: mustprogress nounwind uwtable
define linkonce_odr hidden void @_ZN13VM_ZVerifyOldC2Ev(ptr noundef nonnull align 8 dereferenceable(16) %0) unnamed_addr #1 comdat align 2 {
  %2 = alloca ptr, align 8
  store ptr %0, ptr %2, align 8
  %3 = load ptr, ptr %2, align 8
  call void @_ZN12VM_OperationC2Ev(ptr noundef nonnull align 8 dereferenceable(16) %3)
  store ptr getelementptr inbounds inrange(-16, 80) ({ [12 x ptr] }, ptr @_ZTV13VM_ZVerifyOld, i32 0, i32 0, i32 2), ptr %3, align 8
  ret void
}

; Function Attrs: mustprogress nounwind uwtable
define hidden void @_ZN14ZGenerationOld12pause_verifyEv(ptr noundef nonnull align 64 dereferenceable(6720) %0) #1 align 2 {
  %2 = alloca ptr, align 8
  %3 = alloca %class.ZDriverLocker, align 1
  %4 = alloca %class.VM_ZVerifyOld, align 8
  store ptr %0, ptr %2, align 8
  %5 = load i8, ptr @ZVerifyRoots, align 1
  %6 = trunc i8 %5 to i1
  br i1 %6, label %10, label %7

7:                                                ; preds = %1
  %8 = load i8, ptr @ZVerifyObjects, align 1
  %9 = trunc i8 %8 to i1
  br i1 %9, label %10, label %11

10:                                               ; preds = %7, %1
  call void @_ZN13ZDriverLockerC1Ev(ptr noundef nonnull align 1 dereferenceable(1) %3)
  call void @llvm.memset.p0.i64(ptr align 8 %4, i8 0, i64 16, i1 false)
  call void @_ZN13VM_ZVerifyOldC2Ev(ptr noundef nonnull align 8 dereferenceable(16) %4)
  call void @_ZN13VM_ZVerifyOld5pauseEv(ptr noundef nonnull align 8 dereferenceable(16) %4)
  call void @_ZN13ZDriverLockerD1Ev(ptr noundef nonnull align 1 dereferenceable(1) %3) #10
  br label %11

11:                                               ; preds = %10, %7
  ret void
}