; Function Attrs: mustprogress nounwind uwtable
define hidden void @_ZN14ZGenerationOld12pause_verifyEv(ptr nocapture noundef nonnull readnone align 64 dereferenceable(6720) %0) local_unnamed_addr #0 align 2 {
  %2 = alloca %class.ZDriverLocker, align 1
  %3 = alloca %class.VM_ZVerifyOld, align 8
  %4 = load i8, ptr @ZVerifyRoots, align 1
  %5 = trunc i8 %4 to i1
  br i1 %5, label %9, label %6

6:                                                ; preds = %1
  %7 = load i8, ptr @ZVerifyObjects, align 1
  %8 = trunc i8 %7 to i1
  br i1 %8, label %9, label %11

9:                                                ; preds = %6, %1
  call void @_ZN13ZDriverLockerC1Ev(ptr noundef nonnull align 1 dereferenceable(1) %2) #18
  %10 = getelementptr inbounds i8, ptr %3, i64 8
  store i64 0, ptr %10, align 8
  store ptr getelementptr inbounds inrange(-16, 80) (i8, ptr @_ZTV13VM_ZVerifyOld, i64 16), ptr %3, align 8
  call void @_ZN8VMThread7executeEP12VM_Operation(ptr noundef nonnull %3) #18
  call void @_ZN13ZDriverLockerD1Ev(ptr noundef nonnull align 1 dereferenceable(1) %2) #18
  br label %11

11:                                               ; preds = %9, %6
  ret void
}